target datalayout = "e-m:e-p270:32:32-p271:32:32-p272:64:64-i64:64-i128:128-f80:128-n8:16:32:64-S128"
target triple = "x86_64-pc-linux-gnu"

%struct._win_st = type { i16, i16, i16, i16, i16, i16, i16, i32, i32, i8, i8, i8, i8, i8, i8, i8, i8, i8, i32, ptr, i16, i16, i32, i32, ptr, %struct.pdat, i16, %struct.cchar_t, i32 }
%struct.pdat = type { i16, i16, i16, i16, i16, i16 }
%struct.cchar_t = type { i32, [5 x i32], i32 }

@stdscr = external global ptr, align 8
@.str.11 = private unnamed_addr constant [111 x i8] c"generated/home/dtcxzyw/WorkSpace/Projects/compilers/llvm-opt-benchmark/bench/clamav/clamav/clamdtop/clamdtop.c\00", align 1
@.str.159 = private unnamed_addr constant [92 x i8] c"activ + 2 < len && activ + dim + 2 < len && activ + dim + rem + 2 < len && \22Invalid values\22\00", align 1
@__PRETTY_FUNCTION__.show_bar = private unnamed_addr constant [79 x i8] c"void show_bar(WINDOW *, size_t, unsigned int, unsigned int, unsigned int, int)\00", align 1

; Function Attrs: nounwind uwtable
define internal void @show_bar(ptr noundef %0, i64 noundef %1, i32 noundef %2, i32 noundef %3, i32 noundef %4, i32 noundef %5) #0 {
  %7 = alloca ptr, align 8
  %8 = alloca i64, align 8
  %9 = alloca i32, align 4
  %10 = alloca i32, align 4
  %11 = alloca i32, align 4
  %12 = alloca i32, align 4
  %13 = alloca i32, align 4
  %14 = alloca i32, align 4
  %15 = alloca i32, align 4
  %16 = alloca i32, align 4
  %17 = alloca i32, align 4
  %18 = alloca i32, align 4
  %19 = alloca i32, align 4
  %20 = alloca i32, align 4
  store ptr %0, ptr %7, align 8
  store i64 %1, ptr %8, align 8
  store i32 %2, ptr %9, align 4
  store i32 %3, ptr %10, align 4
  store i32 %4, ptr %11, align 4
  store i32 %5, ptr %12, align 4
  store i32 0, ptr %15, align 4
  store i32 39, ptr %16, align 4
  store i32 1, ptr %17, align 4
  %21 = load i32, ptr %11, align 4
  %22 = icmp ne i32 %21, 0
  br i1 %22, label %23, label %37

23:                                               ; preds = %6
  %24 = load i32, ptr %9, align 4
  %25 = load i32, ptr %10, align 4
  %26 = sub i32 %24, %25
  %27 = load i32, ptr %16, align 4
  %28 = load i32, ptr %17, align 4
  %29 = sub i32 %27, %28
  %30 = sub i32 %29, 2
  %31 = mul i32 %26, %30
  %32 = load i32, ptr %11, align 4
  %33 = udiv i32 %32, 2
  %34 = add i32 %31, %33
  %35 = load i32, ptr %11, align 4
  %36 = udiv i32 %34, %35
  br label %38

37:                                               ; preds = %6
  br label %38

38:                                               ; preds = %37, %23
  %39 = phi i32 [ %36, %23 ], [ 0, %37 ]
  store i32 %39, ptr %18, align 4
  %40 = load i32, ptr %11, align 4
  %41 = icmp ne i32 %40, 0
  br i1 %41, label %42, label %51

42:                                               ; preds = %38
  %43 = load i32, ptr %10, align 4
  %44 = load i32, ptr %16, align 4
  %45 = load i32, ptr %17, align 4
  %46 = sub i32 %44, %45
  %47 = sub i32 %46, 2
  %48 = mul i32 %43, %47
  %49 = load i32, ptr %11, align 4
  %50 = udiv i32 %48, %49
  br label %52

51:                                               ; preds = %38
  br label %52

52:                                               ; preds = %51, %42
  %53 = phi i32 [ %50, %42 ], [ 0, %51 ]
  store i32 %53, ptr %19, align 4
  %54 = load i32, ptr %16, align 4
  %55 = load i32, ptr %18, align 4
  %56 = sub i32 %54, %55
  %57 = load i32, ptr %19, align 4
  %58 = sub i32 %56, %57
  %59 = load i32, ptr %17, align 4
  %60 = sub i32 %58, %59
  %61 = sub i32 %60, 2
  store i32 %61, ptr %20, align 4
  %62 = load i32, ptr %18, align 4
  %63 = add i32 %62, 2
  %64 = load i32, ptr %16, align 4
  %65 = icmp ult i32 %63, %64
  br i1 %65, label %66, label %84

66:                                               ; preds = %52
  %67 = load i32, ptr %18, align 4
  %68 = load i32, ptr %19, align 4
  %69 = add i32 %67, %68
  %70 = add i32 %69, 2
  %71 = load i32, ptr %16, align 4
  %72 = icmp ult i32 %70, %71
  br i1 %72, label %73, label %84

73:                                               ; preds = %66
  %74 = load i32, ptr %18, align 4
  %75 = load i32, ptr %19, align 4
  %76 = add i32 %74, %75
  %77 = load i32, ptr %20, align 4
  %78 = add i32 %76, %77
  %79 = add i32 %78, 2
  %80 = load i32, ptr %16, align 4
  %81 = icmp ult i32 %79, %80
  br i1 %81, label %82, label %84

82:                                               ; preds = %73
  br i1 true, label %83, label %84

83:                                               ; preds = %82
  br label %85

84:                                               ; preds = %82, %73, %66, %52
  call void @__assert_fail(ptr noundef @.str.159, ptr noundef @.str.11, i32 noundef 409, ptr noundef @__PRETTY_FUNCTION__.show_bar) #17
  unreachable

85:                                               ; preds = %83
  %86 = load ptr, ptr %7, align 8
  %87 = load i64, ptr %8, align 8
  %88 = trunc i64 %87 to i32
  %89 = load i32, ptr %17, align 4
  %90 = call i32 @wmove(ptr noundef %86, i32 noundef %88, i32 noundef %89)
  %91 = icmp eq i32 %90, -1
  br i1 %91, label %92, label %93

92:                                               ; preds = %85
  br label %96

93:                                               ; preds = %85
  %94 = load ptr, ptr %7, align 8
  %95 = call i32 @waddch(ptr noundef %94, i32 noundef 2097243)
  br label %96

96:                                               ; preds = %93, %92
  %97 = load ptr, ptr %7, align 8
  %98 = call i32 @wattr_on(ptr noundef %97, i32 noundef 2099200, ptr noundef null)
  store i64 0, ptr %8, align 8
  br label %99

99:                                               ; preds = %107, %96
  %100 = load i64, ptr %8, align 8
  %101 = load i32, ptr %18, align 4
  %102 = zext i32 %101 to i64
  %103 = icmp ult i64 %100, %102
  br i1 %103, label %104, label %110

104:                                              ; preds = %99
  %105 = load ptr, ptr %7, align 8
  %106 = call i32 @waddch(ptr noundef %105, i32 noundef 124)
  br label %107

107:                                              ; preds = %104
  %108 = load i64, ptr %8, align 8
  %109 = add i64 %108, 1
  store i64 %109, ptr %8, align 8
  br label %99

110:                                              ; preds = %99
  %111 = load ptr, ptr %7, align 8
  %112 = call i32 @wattr_off(ptr noundef %111, i32 noundef 2099200, ptr noundef null)
  %113 = load ptr, ptr %7, align 8
  %114 = call i32 @wattr_on(ptr noundef %113, i32 noundef 1050880, ptr noundef null)
  store i64 0, ptr %8, align 8
  br label %115

115:                                              ; preds = %123, %110
  %116 = load i64, ptr %8, align 8
  %117 = load i32, ptr %19, align 4
  %118 = zext i32 %117 to i64
  %119 = icmp ult i64 %116, %118
  br i1 %119, label %120, label %126

120:                                              ; preds = %115
  %121 = load ptr, ptr %7, align 8
  %122 = call i32 @waddch(ptr noundef %121, i32 noundef 124)
  br label %123

123:                                              ; preds = %120
  %124 = load i64, ptr %8, align 8
  %125 = add i64 %124, 1
  store i64 %125, ptr %8, align 8
  br label %115

126:                                              ; preds = %115
  %127 = load ptr, ptr %7, align 8
  %128 = call i32 @wattr_off(ptr noundef %127, i32 noundef 1050880, ptr noundef null)
  store i64 0, ptr %8, align 8
  br label %129

129:                                              ; preds = %137, %126
  %130 = load i64, ptr %8, align 8
  %131 = load i32, ptr %20, align 4
  %132 = zext i32 %131 to i64
  %133 = icmp ult i64 %130, %132
  br i1 %133, label %134, label %140

134:                                              ; preds = %129
  %135 = load ptr, ptr %7, align 8
  %136 = call i32 @waddch(ptr noundef %135, i32 noundef 32)
  br label %137

137:                                              ; preds = %134
  %138 = load i64, ptr %8, align 8
  %139 = add i64 %138, 1
  store i64 %139, ptr %8, align 8
  br label %129

140:                                              ; preds = %129
  %141 = load ptr, ptr %7, align 8
  %142 = call i32 @waddch(ptr noundef %141, i32 noundef 2097245)
  %143 = load i32, ptr %12, align 4
  %144 = icmp ne i32 %143, 0
  br i1 %144, label %145, label %193

145:                                              ; preds = %140
  %146 = load ptr, ptr %7, align 8
  %147 = icmp ne ptr null, %146
  br i1 %147, label %148, label %153

148:                                              ; preds = %145
  %149 = load ptr, ptr %7, align 8
  %150 = getelementptr inbounds %struct._win_st, ptr %149, i32 0, i32 0
  %151 = load i16, ptr %150, align 8
  %152 = sext i16 %151 to i32
  br label %154

153:                                              ; preds = %145
  br label %154

154:                                              ; preds = %153, %148
  %155 = phi i32 [ %152, %148 ], [ -1, %153 ]
  store i32 %155, ptr %13, align 4
  %156 = load ptr, ptr %7, align 8
  %157 = icmp ne ptr null, %156
  br i1 %157, label %158, label %163

158:                                              ; preds = %154
  %159 = load ptr, ptr %7, align 8
  %160 = getelementptr inbounds %struct._win_st, ptr %159, i32 0, i32 1
  %161 = load i16, ptr %160, align 2
  %162 = sext i16 %161 to i32
  br label %164

163:                                              ; preds = %154
  br label %164

164:                                              ; preds = %163, %158
  %165 = phi i32 [ %162, %158 ], [ -1, %163 ]
  store i32 %165, ptr %14, align 4
  %166 = load i32, ptr %14, align 4
  %167 = icmp slt i32 %166, 0
  br i1 %167, label %171, label %168

168:                                              ; preds = %164
  %169 = load i32, ptr %13, align 4
  %170 = icmp slt i32 %169, 0
  br i1 %170, label %171, label %172

171:                                              ; preds = %168, %164
  br label %193

172:                                              ; preds = %168
  %173 = load i32, ptr %14, align 4
  %174 = icmp sge i32 %173, 2
  br i1 %174, label %175, label %178

175:                                              ; preds = %172
  %176 = load i32, ptr %14, align 4
  %177 = sub nsw i32 %176, 2
  store i32 %177, ptr %15, align 4
  br label %178

178:                                              ; preds = %175, %172
  %179 = load ptr, ptr %7, align 8
  %180 = load i32, ptr %13, align 4
  %181 = load i32, ptr %15, align 4
  %182 = call i32 @wmove(ptr noundef %179, i32 noundef %180, i32 noundef %181)
  %183 = icmp eq i32 %182, -1
  br i1 %183, label %184, label %185

184:                                              ; preds = %178
  br label %188

185:                                              ; preds = %178
  %186 = load ptr, ptr %7, align 8
  %187 = call i32 @waddch(ptr noundef %186, i32 noundef 526910)
  br label %188

188:                                              ; preds = %185, %184
  %189 = load ptr, ptr @stdscr, align 8
  %190 = load i32, ptr %13, align 4
  %191 = load i32, ptr %15, align 4
  %192 = call i32 @wmove(ptr noundef %189, i32 noundef %190, i32 noundef %191)
  br label %193

193:                                              ; preds = %188, %171, %140
  ret void
}