; Function Attrs: nounwind uwtable
define internal fastcc void @show_bar(ptr noundef %0, i64 noundef %1, i32 noundef %2, i32 noundef %3, i32 noundef %4, i32 noundef %5) unnamed_addr #0 {
  %.not = icmp eq i32 %4, 0
  br i1 %.not, label %.thread71, label %7

7:                                                ; preds = %6
  %8 = sub i32 %2, %3
  %9 = mul i32 %8, 36
  %10 = lshr i32 %4, 1
  %11 = add i32 %9, %10
  %12 = udiv i32 %11, %4
  %13 = mul i32 %3, 36
  %14 = udiv i32 %13, %4
  %15 = add i32 %14, %12
  %16 = sub nsw i32 36, %15
  %17 = add i32 %12, 2
  %18 = icmp ult i32 %17, 39
  %19 = add i32 %15, 2
  %20 = icmp ult i32 %19, 39
  %or.cond76 = and i1 %18, %20
  br i1 %or.cond76, label %.thread71, label %21

21:                                               ; preds = %7
  tail call void @__assert_fail(ptr noundef nonnull @.str.159, ptr noundef nonnull @.str.11, i32 noundef 409, ptr noundef nonnull @__PRETTY_FUNCTION__.show_bar) #30
  unreachable

.thread71:                                        ; preds = %7, %6
  %22 = phi i32 [ 0, %6 ], [ %12, %7 ]
  %23 = phi i32 [ 0, %6 ], [ %14, %7 ]
  %24 = phi i32 [ 36, %6 ], [ %16, %7 ]
  %25 = trunc nuw nsw i64 %1 to i32
  %26 = tail call i32 @wmove(ptr noundef %0, i32 noundef %25, i32 noundef 1) #25
  %27 = icmp eq i32 %26, -1
  br i1 %27, label %30, label %28

28:                                               ; preds = %.thread71
  %29 = tail call i32 @waddch(ptr noundef %0, i32 noundef 2097243) #25
  br label %30

30:                                               ; preds = %.thread71, %28
  %31 = tail call i32 @wattr_on(ptr noundef %0, i32 noundef 2099200, ptr noundef null) #25
  %32 = zext i32 %22 to i64
  %.not87 = icmp eq i32 %22, 0
  br i1 %.not87, label %._crit_edge, label %.lr.ph

.lr.ph:                                           ; preds = %30, %.lr.ph
  %.078 = phi i64 [ %34, %.lr.ph ], [ 0, %30 ]
  %33 = tail call i32 @waddch(ptr noundef %0, i32 noundef 124) #25
  %34 = add nuw nsw i64 %.078, 1
  %exitcond.not = icmp eq i64 %34, %32
  br i1 %exitcond.not, label %._crit_edge, label %.lr.ph

._crit_edge:                                      ; preds = %.lr.ph, %30
  %35 = tail call i32 @wattr_off(ptr noundef %0, i32 noundef 2099200, ptr noundef null) #25
  %36 = tail call i32 @wattr_on(ptr noundef %0, i32 noundef 1050880, ptr noundef null) #25
  %37 = zext i32 %23 to i64
  %.not88 = icmp eq i32 %23, 0
  br i1 %.not88, label %._crit_edge82, label %.lr.ph81

.lr.ph81:                                         ; preds = %._crit_edge, %.lr.ph81
  %.179 = phi i64 [ %39, %.lr.ph81 ], [ 0, %._crit_edge ]
  %38 = tail call i32 @waddch(ptr noundef %0, i32 noundef 124) #25
  %39 = add nuw nsw i64 %.179, 1
  %exitcond90.not = icmp eq i64 %39, %37
  br i1 %exitcond90.not, label %._crit_edge82, label %.lr.ph81

._crit_edge82:                                    ; preds = %.lr.ph81, %._crit_edge
  %40 = tail call i32 @wattr_off(ptr noundef %0, i32 noundef 1050880, ptr noundef null) #25
  %41 = zext i32 %24 to i64
  %.not89 = icmp eq i32 %24, 0
  br i1 %.not89, label %._crit_edge86, label %.lr.ph85

.lr.ph85:                                         ; preds = %._crit_edge82, %.lr.ph85
  %.283 = phi i64 [ %43, %.lr.ph85 ], [ 0, %._crit_edge82 ]
  %42 = tail call i32 @waddch(ptr noundef %0, i32 noundef 32) #25
  %43 = add nuw nsw i64 %.283, 1
  %exitcond91.not = icmp eq i64 %43, %41
  br i1 %exitcond91.not, label %._crit_edge86, label %.lr.ph85

._crit_edge86:                                    ; preds = %.lr.ph85, %._crit_edge82
  %44 = tail call i32 @waddch(ptr noundef %0, i32 noundef 2097245) #25
  %.not68 = icmp eq i32 %5, 0
  %.not69 = icmp eq ptr %0, null
  %or.cond77 = or i1 %.not69, %.not68
  br i1 %or.cond77, label %.thread73, label %45

45:                                               ; preds = %._crit_edge86
  %46 = load i16, ptr %0, align 8
  %47 = sext i16 %46 to i32
  %48 = getelementptr inbounds i8, ptr %0, i64 2
  %49 = load i16, ptr %48, align 2
  %50 = icmp slt i16 %49, 0
  %51 = icmp slt i16 %46, 0
  %or.cond = select i1 %50, i1 true, i1 %51
  br i1 %or.cond, label %.thread73, label %52

52:                                               ; preds = %45
  %53 = zext nneg i16 %49 to i32
  %54 = icmp ugt i16 %49, 1
  %55 = add nsw i32 %53, -2
  %spec.select = select i1 %54, i32 %55, i32 0
  %56 = tail call i32 @wmove(ptr noundef nonnull %0, i32 noundef %47, i32 noundef %spec.select) #25
  %57 = icmp eq i32 %56, -1
  br i1 %57, label %60, label %58

58:                                               ; preds = %52
  %59 = tail call i32 @waddch(ptr noundef nonnull %0, i32 noundef 526910) #25
  br label %60

60:                                               ; preds = %52, %58
  %61 = load ptr, ptr @stdscr, align 8
  %62 = tail call i32 @wmove(ptr noundef %61, i32 noundef %47, i32 noundef %spec.select) #25
  br label %.thread73

.thread73:                                        ; preds = %45, %60, %._crit_edge86
  ret void
}